; Function Attrs: nounwind uwtable
define internal i32 @commit_pos_cmp(ptr noundef readonly captures(none) %0, ptr noundef readonly captures(none) %1) #0 {
  %3 = load ptr, ptr %0, align 8, !tbaa !165
  %4 = load ptr, ptr %1, align 8, !tbaa !165
  %5 = getelementptr i8, ptr %3, i64 64
  %.val4 = load i32, ptr %5, align 8, !tbaa !49
  %6 = udiv i32 %.val4, 131064
  %7 = urem i32 %.val4, 131064
  %8 = load i32, ptr @commit_pos.2, align 8, !tbaa !299
  %.not.i.i = icmp ugt i32 %8, %6
  %.pre.i.i = load ptr, ptr @commit_pos.3, align 8, !tbaa !301
  br i1 %.not.i.i, label %17, label %st_mult.exit.i.i

st_mult.exit.i.i:                                 ; preds = %2
  %9 = add nuw nsw i32 %6, 1
  %10 = shl nuw nsw i32 %9, 3
  %11 = zext nneg i32 %10 to i64
  %12 = tail call ptr @xrealloc(ptr noundef %.pre.i.i, i64 noundef %11) #24
  store ptr %12, ptr @commit_pos.3, align 8, !tbaa !301
  %13 = load i32, ptr @commit_pos.2, align 8, !tbaa !299
  %.not332.i.i = icmp ugt i32 %13, %6
  br i1 %.not332.i.i, label %._crit_edge.i.i, label %.lr.ph.i.i

.lr.ph.i.i:                                       ; preds = %st_mult.exit.i.i, %.lr.ph.i.i
  %.0303.i.i = phi i32 [ %16, %.lr.ph.i.i ], [ %13, %st_mult.exit.i.i ]
  %14 = zext i32 %.0303.i.i to i64
  %15 = getelementptr inbounds nuw ptr, ptr %12, i64 %14
  store ptr null, ptr %15, align 8, !tbaa !148
  %16 = add i32 %.0303.i.i, 1
  %.not33.i.i = icmp ugt i32 %16, %6
  br i1 %.not33.i.i, label %._crit_edge.i.i, label %.lr.ph.i.i, !llvm.loop !302

._crit_edge.i.i:                                  ; preds = %.lr.ph.i.i, %st_mult.exit.i.i
  store i32 %9, ptr @commit_pos.2, align 8, !tbaa !299
  br label %17

17:                                               ; preds = %._crit_edge.i.i, %2
  %18 = phi i32 [ %9, %._crit_edge.i.i ], [ %8, %2 ]
  %19 = phi ptr [ %12, %._crit_edge.i.i ], [ %.pre.i.i, %2 ]
  %20 = zext nneg i32 %6 to i64
  %21 = getelementptr inbounds nuw ptr, ptr %19, i64 %20
  %22 = load ptr, ptr %21, align 8, !tbaa !148
  %.not34.i.i = icmp eq ptr %22, null
  br i1 %.not34.i.i, label %23, label %commit_pos_at.exit

23:                                               ; preds = %17
  %24 = tail call ptr @xcalloc(i64 noundef 131064, i64 noundef 4) #24
  %25 = load ptr, ptr @commit_pos.3, align 8, !tbaa !301
  %26 = getelementptr inbounds nuw ptr, ptr %25, i64 %20
  store ptr %24, ptr %26, align 8, !tbaa !148
  %.pre16 = load i32, ptr @commit_pos.2, align 8, !tbaa !299
  br label %commit_pos_at.exit

commit_pos_at.exit:                               ; preds = %17, %23
  %.pre.i.i6 = phi ptr [ %19, %17 ], [ %25, %23 ]
  %27 = phi i32 [ %18, %17 ], [ %.pre16, %23 ]
  %28 = phi ptr [ %22, %17 ], [ %24, %23 ]
  %29 = getelementptr i8, ptr %4, i64 64
  %.val = load i32, ptr %29, align 8, !tbaa !49
  %30 = udiv i32 %.val, 131064
  %31 = urem i32 %.val, 131064
  %.not.i.i5 = icmp ugt i32 %27, %30
  br i1 %.not.i.i5, label %40, label %st_mult.exit.i.i7

st_mult.exit.i.i7:                                ; preds = %commit_pos_at.exit
  %32 = add nuw nsw i32 %30, 1
  %33 = shl nuw nsw i32 %32, 3
  %34 = zext nneg i32 %33 to i64
  %35 = tail call ptr @xrealloc(ptr noundef nonnull %.pre.i.i6, i64 noundef %34) #24
  store ptr %35, ptr @commit_pos.3, align 8, !tbaa !301
  %36 = load i32, ptr @commit_pos.2, align 8, !tbaa !299
  %.not332.i.i8 = icmp ugt i32 %36, %30
  br i1 %.not332.i.i8, label %._crit_edge.i.i12, label %.lr.ph.i.i9

.lr.ph.i.i9:                                      ; preds = %st_mult.exit.i.i7, %.lr.ph.i.i9
  %.0303.i.i10 = phi i32 [ %39, %.lr.ph.i.i9 ], [ %36, %st_mult.exit.i.i7 ]
  %37 = zext i32 %.0303.i.i10 to i64
  %38 = getelementptr inbounds nuw ptr, ptr %35, i64 %37
  store ptr null, ptr %38, align 8, !tbaa !148
  %39 = add i32 %.0303.i.i10, 1
  %.not33.i.i11 = icmp ugt i32 %39, %30
  br i1 %.not33.i.i11, label %._crit_edge.i.i12, label %.lr.ph.i.i9, !llvm.loop !302

._crit_edge.i.i12:                                ; preds = %.lr.ph.i.i9, %st_mult.exit.i.i7
  store i32 %32, ptr @commit_pos.2, align 8, !tbaa !299
  br label %40

40:                                               ; preds = %._crit_edge.i.i12, %commit_pos_at.exit
  %41 = phi ptr [ %35, %._crit_edge.i.i12 ], [ %.pre.i.i6, %commit_pos_at.exit ]
  %42 = zext nneg i32 %30 to i64
  %43 = getelementptr inbounds nuw ptr, ptr %41, i64 %42
  %44 = load ptr, ptr %43, align 8, !tbaa !148
  %.not34.i.i13 = icmp eq ptr %44, null
  br i1 %.not34.i.i13, label %45, label %commit_pos_at.exit14

45:                                               ; preds = %40
  %46 = tail call ptr @xcalloc(i64 noundef 131064, i64 noundef 4) #24
  %47 = load ptr, ptr @commit_pos.3, align 8, !tbaa !301
  %48 = getelementptr inbounds nuw ptr, ptr %47, i64 %42
  store ptr %46, ptr %48, align 8, !tbaa !148
  br label %commit_pos_at.exit14

commit_pos_at.exit14:                             ; preds = %40, %45
  %49 = phi ptr [ %44, %40 ], [ %46, %45 ]
  %50 = zext nneg i32 %7 to i64
  %51 = getelementptr inbounds nuw i32, ptr %28, i64 %50
  %52 = zext nneg i32 %31 to i64
  %53 = getelementptr inbounds nuw i32, ptr %49, i64 %52
  %54 = ptrtoint ptr %51 to i64
  %55 = ptrtoint ptr %53 to i64
  %56 = sub i64 %54, %55
  %57 = lshr exact i64 %56, 2
  %58 = trunc i64 %57 to i32
  ret i32 %58
}